target datalayout = "e-m:e-p270:32:32-p271:32:32-p272:64:64-i64:64-i128:128-f80:128-n8:16:32:64-S128"
target triple = "x86_64-pc-linux-gnu"

%struct.CordRep = type { %struct.Generic, %union.ConcatOrFunc }
%struct.Generic = type { i8, i8, i8, i8, i64 }
%union.ConcatOrFunc = type { %struct.Concatenation }
%struct.Concatenation = type { ptr, ptr }

; Function Attrs: nounwind uwtable
define i64 @CORD_len(ptr noundef %0) #0 {
  %2 = alloca ptr, align 8
  store ptr %0, ptr %2, align 8, !tbaa !7
  %3 = load ptr, ptr %2, align 8, !tbaa !7
  %4 = icmp eq ptr %3, null
  br i1 %4, label %5, label %6

5:                                                ; preds = %1
  br label %21

6:                                                ; preds = %1
  %7 = load ptr, ptr %2, align 8, !tbaa !7
  %8 = load i8, ptr %7, align 1, !tbaa !17
  %9 = sext i8 %8 to i32
  %10 = icmp ne i32 %9, 0
  br i1 %10, label %11, label %14

11:                                               ; preds = %6
  %12 = load ptr, ptr %2, align 8, !tbaa !7
  %13 = call i64 @strlen(ptr noundef %12) #10
  br label %19

14:                                               ; preds = %6
  %15 = load ptr, ptr %2, align 8, !tbaa !7
  %16 = getelementptr inbounds nuw %struct.CordRep, ptr %15, i32 0, i32 0
  %17 = getelementptr inbounds nuw %struct.Generic, ptr %16, i32 0, i32 4
  %18 = load i64, ptr %17, align 8, !tbaa !24
  br label %19

19:                                               ; preds = %14, %11
  %20 = phi i64 [ %13, %11 ], [ %18, %14 ]
  br label %21

21:                                               ; preds = %19, %5
  %22 = phi i64 [ 0, %5 ], [ %20, %19 ]
  ret i64 %22
}

; Function Attrs: nounwind uwtable
define ptr @CORD_substr(ptr noundef %0, i64 noundef %1, i64 noundef %2) #0 {
  %4 = alloca ptr, align 8
  %5 = alloca ptr, align 8
  %6 = alloca i64, align 8
  %7 = alloca i64, align 8
  %8 = alloca i64, align 8
  %9 = alloca i32, align 4
  store ptr %0, ptr %5, align 8, !tbaa !7
  store i64 %1, ptr %6, align 8, !tbaa !13
  store i64 %2, ptr %7, align 8, !tbaa !13
  call void @llvm.lifetime.start.p0(i64 8, ptr %8) #9
  %10 = load ptr, ptr %5, align 8, !tbaa !7
  %11 = call i64 @CORD_len(ptr noundef %10)
  store i64 %11, ptr %8, align 8, !tbaa !13
  %12 = load i64, ptr %6, align 8, !tbaa !13
  %13 = load i64, ptr %8, align 8, !tbaa !13
  %14 = icmp uge i64 %12, %13
  br i1 %14, label %18, label %15

15:                                               ; preds = %3
  %16 = load i64, ptr %7, align 8, !tbaa !13
  %17 = icmp eq i64 0, %16
  br i1 %17, label %18, label %19

18:                                               ; preds = %15, %3
  store ptr null, ptr %4, align 8
  store i32 1, ptr %9, align 4
  br label %34

19:                                               ; preds = %15
  %20 = load i64, ptr %6, align 8, !tbaa !13
  %21 = load i64, ptr %7, align 8, !tbaa !13
  %22 = add i64 %20, %21
  %23 = load i64, ptr %8, align 8, !tbaa !13
  %24 = icmp ugt i64 %22, %23
  br i1 %24, label %25, label %29

25:                                               ; preds = %19
  %26 = load i64, ptr %8, align 8, !tbaa !13
  %27 = load i64, ptr %6, align 8, !tbaa !13
  %28 = sub i64 %26, %27
  store i64 %28, ptr %7, align 8, !tbaa !13
  br label %29

29:                                               ; preds = %25, %19
  %30 = load ptr, ptr %5, align 8, !tbaa !7
  %31 = load i64, ptr %6, align 8, !tbaa !13
  %32 = load i64, ptr %7, align 8, !tbaa !13
  %33 = call ptr @CORD_substr_checked(ptr noundef %30, i64 noundef %31, i64 noundef %32)
  store ptr %33, ptr %4, align 8
  store i32 1, ptr %9, align 4
  br label %34

34:                                               ; preds = %29, %18
  call void @llvm.lifetime.end.p0(i64 8, ptr %8) #9
  %35 = load ptr, ptr %4, align 8
  ret ptr %35
}