; Function Attrs: nounwind uwtable
define ptr @CORD_substr(ptr noundef %0, i64 noundef %1, i64 noundef %2) local_unnamed_addr #2 {
  %4 = icmp eq ptr %0, null
  br i1 %4, label %CORD_len.exit.thread, label %5

5:                                                ; preds = %3
  %6 = load i8, ptr %0, align 1, !tbaa !11
  %.not.i = icmp eq i8 %6, 0
  br i1 %.not.i, label %9, label %7

7:                                                ; preds = %5
  %8 = tail call i64 @strlen(ptr noundef nonnull readonly dereferenceable(1) %0) #18
  br label %CORD_len.exit

9:                                                ; preds = %5
  %10 = getelementptr inbounds nuw i8, ptr %0, i64 8
  %11 = load i64, ptr %10, align 8, !tbaa !17
  br label %CORD_len.exit

CORD_len.exit:                                    ; preds = %7, %9
  %12 = phi i64 [ %8, %7 ], [ %11, %9 ]
  %13 = icmp uge i64 %1, %12
  %14 = icmp eq i64 %2, 0
  %or.cond = or i1 %14, %13
  br i1 %or.cond, label %CORD_len.exit.thread, label %15

15:                                               ; preds = %CORD_len.exit
  %16 = add i64 %2, %1
  %17 = icmp ugt i64 %16, %12
  %18 = sub nuw i64 %12, %1
  %spec.select = select i1 %17, i64 %18, i64 %2
  %19 = tail call fastcc ptr @CORD_substr_checked(ptr noundef nonnull %0, i64 noundef %1, i64 noundef %spec.select)
  br label %CORD_len.exit.thread

CORD_len.exit.thread:                             ; preds = %3, %CORD_len.exit, %15
  %.0 = phi ptr [ %19, %15 ], [ null, %CORD_len.exit ], [ null, %3 ]
  ret ptr %.0
}